; Function Attrs: mustprogress uwtable
define hidden noundef ptr @_Z13pyopencv_fromRKN2cv3VecIfLi4EEE(ptr nocapture noundef nonnull readonly align 4 dereferenceable(16) %0) local_unnamed_addr #3 {
  %2 = load float, ptr %0, align 4
  %3 = fpext float %2 to double
  %4 = getelementptr inbounds i8, ptr %0, i64 4
  %5 = load float, ptr %4, align 4
  %6 = fpext float %5 to double
  %7 = getelementptr inbounds i8, ptr %0, i64 8
  %8 = load float, ptr %7, align 4
  %9 = fpext float %8 to double
  %10 = getelementptr inbounds i8, ptr %0, i64 12
  %11 = load float, ptr %10, align 4
  %12 = fpext float %11 to double
  %13 = tail call ptr (ptr, ...) @Py_BuildValue(ptr noundef nonnull @.str.32, double noundef %3, double noundef %6, double noundef %9, double noundef %12)
  ret ptr %13
}